Certificate:
    Data:
        Version: 3 (0x2)
        Serial Number: 4 (0x4)
        Signature Algorithm: md5WithRSAEncryption
        Issuer: C=US, ST=N/A, L=N/A, O=JOSSO Organisation, OU=Security, CN=josso.org/Email=ca@josso.org
        Validity
            Not Before: Nov 11 21:33:26 2004 GMT
            Not After : Nov 11 21:33:26 2005 GMT
        Subject: C=US, ST=N/A, O=JOSSO Organisation, OU=N/A, CN=JOSSO Server
        Subject Public Key Info:
            Public Key Algorithm: rsaEncryption
            RSA Public Key: (1024 bit)
                Modulus (1024 bit):
                    00:d7:88:37:54:b4:8c:a5:ce:ac:bb:4c:66:46:60:
                    73:97:f8:be:e8:a2:aa:f9:b8:67:0b:1f:bb:11:bb:
                    a1:f6:4e:24:02:83:da:48:ef:cc:76:5c:d5:b9:c6:
                    a5:e1:ab:f4:2b:5e:f9:51:80:22:3d:47:05:b8:ba:
                    5f:33:b3:3f:22:11:2a:25:49:40:35:18:96:10:38:
                    fa:dd:19:cb:78:11:4d:2a:d0:34:ea:95:f0:57:ba:
                    06:75:e7:b8:11:6e:47:5c:3d:c3:8a:c9:7d:4f:bc:
                    b4:d5:c2:47:ba:5b:74:64:62:1d:1c:54:d7:49:57:
                    b0:f4:82:b5:ab:47:15:52:2d
                Exponent: 65537 (0x10001)
        X509v3 extensions:
            X509v3 Basic Constraints: 
                CA:FALSE
            Netscape Comment: 
                OpenSSL Generated Certificate
            X509v3 Subject Key Identifier: 
                31:D8:14:4A:ED:3A:36:D8:BE:DE:73:B9:95:87:78:5A:2D:3B:5A:AA
            X509v3 Authority Key Identifier: 
                keyid:F8:BD:88:53:34:50:EB:B1:AC:2B:23:4A:74:12:BB:9D:6E:53:B0:3B
                DirName:/C=US/ST=N/A/L=N/A/O=JOSSO Organisation/OU=Security/CN=josso.org/Email=ca@josso.org
                serial:00

    Signature Algorithm: md5WithRSAEncryption
        5c:5b:03:b3:6e:bf:8c:e7:bc:d4:3f:fe:f3:8f:bc:4a:f9:3e:
        74:5f:06:90:91:32:80:60:c5:0f:87:24:7e:83:c9:cf:b8:96:
        56:d5:16:ae:27:76:6f:c8:09:2f:c7:44:99:30:ec:8f:21:0f:
        52:fd:f6:ef:1d:5a:c7:71:28:ad:20:64:09:aa:36:de:db:c8:
        83:c6:12:33:10:b3:1e:74:e8:a7:bd:84:c5:a5:74:a1:a8:4d:
        37:21:3f:de:6c:68:e0:ec:1e:61:3e:b8:bd:07:d1:db:cc:df:
        10:4a:d9:f7:60:f2:52:e7:13:e6:30:b2:ad:31:63:1d:e6:a7:
        0b:c7
-----BEGIN CERTIFICATE-----
MIIDdjCCAt+gAwIBAgIBBDANBgkqhkiG9w0BAQQFADCBijELMAkGA1UEBhMCVVMx
DDAKBgNVBAgTA04vQTEMMAoGA1UEBxMDTi9BMRswGQYDVQQKExJKT1NTTyBPcmdh
bmlzYXRpb24xETAPBgNVBAsTCFNlY3VyaXR5MRIwEAYDVQQDEwlqb3Nzby5vcmcx
GzAZBgkqhkiG9w0BCQEWDGNhQGpvc3NvLm9yZzAeFw0wNDExMTEyMTMzMjZaFw0w
NTExMTEyMTMzMjZaMF0xCzAJBgNVBAYTAlVTMQwwCgYDVQQIEwNOL0ExGzAZBgNV
BAoTEkpPU1NPIE9yZ2FuaXNhdGlvbjEMMAoGA1UECxMDTi9BMRUwEwYDVQQDEwxK
T1NTTyBTZXJ2ZXIwgZ8wDQYJKoZIhvcNAQEBBQADgY0AMIGJAoGBANeIN1S0jKXO
rLtMZkZgc5f4vuiiqvm4ZwsfuxG7ofZOJAKD2kjvzHZc1bnGpeGr9Cte+VGAIj1H
Bbi6XzOzPyIRKiVJQDUYlhA4+t0Zy3gRTSrQNOqV8Fe6BnXnuBFuR1w9w4rJfU+8
tNXCR7pbdGRiHRxU10lXsPSCtatHFVItAgMBAAGjggEWMIIBEjAJBgNVHRMEAjAA
MCwGCWCGSAGG+EIBDQQfFh1PcGVuU1NMIEdlbmVyYXRlZCBDZXJ0aWZpY2F0ZTAd
BgNVHQ4EFgQUMdgUSu06Nti+3nO5lYd4Wi07WqowgbcGA1UdIwSBrzCBrIAU+L2I
UzRQ67GsKyNKdBK7nW5TsDuhgZCkgY0wgYoxCzAJBgNVBAYTAlVTMQwwCgYDVQQI
EwNOL0ExDDAKBgNVBAcTA04vQTEbMBkGA1UEChMSSk9TU08gT3JnYW5pc2F0aW9u
MREwDwYDVQQLEwhTZWN1cml0eTESMBAGA1UEAxMJam9zc28ub3JnMRswGQYJKoZI
hvcNAQkBFgxjYUBqb3Nzby5vcmeCAQAwDQYJKoZIhvcNAQEEBQADgYEAXFsDs26/
jOe81D/+84+8Svk+dF8GkJEygGDFD4ckfoPJz7iWVtUWrid2b8gJL8dEmTDsjyEP
Uv327x1ax3EorSBkCao23tvIg8YSMxCzHnTop72ExaV0oahNNyE/3mxo4OweYT64
vQfR28zfEErZ92DyUucT5jCyrTFjHeanC8c=
-----END CERTIFICATE-----
